; Function Attrs: mustprogress nofree norecurse nosync nounwind willreturn memory(read, inaccessiblemem: none) uwtable
define noundef range(i32 0, 2) i32 @_Z22lodepng_can_have_alphaPK16LodePNGColorMode(ptr noundef readonly captures(none) %0) local_unnamed_addr #10 {
  %2 = getelementptr inbounds nuw i8, ptr %0, i64 24
  %3 = load i32, ptr %2, align 8, !tbaa !199
  %.not = icmp eq i32 %3, 0
  br i1 %.not, label %4, label %_Z25lodepng_has_palette_alphaPK16LodePNGColorMode.exit

4:                                                ; preds = %1
  %5 = load i32, ptr %0, align 8, !tbaa !183
  %6 = and i32 %5, 4
  %.not3 = icmp eq i32 %6, 0
  br i1 %.not3, label %7, label %_Z25lodepng_has_palette_alphaPK16LodePNGColorMode.exit

7:                                                ; preds = %4
  %8 = getelementptr inbounds nuw i8, ptr %0, i64 16
  %9 = load i64, ptr %8, align 8, !tbaa !192
  %.not7.i = icmp eq i64 %9, 0
  br i1 %.not7.i, label %_Z25lodepng_has_palette_alphaPK16LodePNGColorMode.exit, label %.lr.ph.i

.lr.ph.i:                                         ; preds = %7
  %10 = getelementptr inbounds nuw i8, ptr %0, i64 8
  %11 = load ptr, ptr %10, align 8, !tbaa !187
  br label %14

12:                                               ; preds = %14
  %13 = add nuw i64 %.08.i, 1
  %.not.i = icmp eq i64 %13, %9
  br i1 %.not.i, label %_Z25lodepng_has_palette_alphaPK16LodePNGColorMode.exit, label %14, !llvm.loop !198

14:                                               ; preds = %12, %.lr.ph.i
  %.08.i = phi i64 [ 0, %.lr.ph.i ], [ %13, %12 ]
  %15 = shl i64 %.08.i, 2
  %16 = or disjoint i64 %15, 3
  %17 = getelementptr inbounds nuw i8, ptr %11, i64 %16
  %18 = load i8, ptr %17, align 1, !tbaa !18
  %.not6.i = icmp eq i8 %18, -1
  br i1 %.not6.i, label %12, label %_Z25lodepng_has_palette_alphaPK16LodePNGColorMode.exit

_Z25lodepng_has_palette_alphaPK16LodePNGColorMode.exit: ; preds = %14, %12, %7, %4, %1
  %19 = phi i32 [ 1, %4 ], [ 1, %1 ], [ 0, %7 ], [ 1, %14 ], [ 0, %12 ]
  ret i32 %19
}